target datalayout = "e-m:e-p270:32:32-p271:32:32-p272:64:64-i64:64-i128:128-f80:128-n8:16:32:64-S128"
target triple = "x86_64-pc-linux-gnu"

%struct._address = type { i32, i32, ptr, ptr }
%struct._packet_info = type { ptr, ptr, i32, i32, %struct.nstime_t, %struct.nstime_t, %struct.nstime_t, i32, ptr, ptr, ptr, ptr, %struct._address, %struct._address, %struct._address, %struct._address, %struct._address, %struct._address, i32, ptr, i32, %struct.anon, i32, i32, i32, i32, ptr, i32, ptr, ptr, i16, i16, i32, i32, i16, i32, i32, ptr, ptr, ptr, i8, i8, i16, i16, i16, i32, i16, i16, ptr, ptr, ptr, ptr, ptr, i32 }
%struct.nstime_t = type { i64, i32 }
%struct.anon = type { i8, [3 x i8] }
%struct.ltp_session_data_t = type { ptr, ptr, ptr, ptr, ptr, ptr, ptr, ptr, ptr }
%struct._proto_node = type { ptr, ptr, ptr, ptr, ptr, ptr }
%struct.field_info = type { ptr, i32, i32, i32, i32, i32, i32, ptr, ptr, ptr, i32, i32 }
%struct.ltp_frame_info_t = type { i32, %struct.nstime_t }

@hf_ltp_rpt_gap = internal global i32 0, align 4
@hf_ltp_rpt_gap_ref = internal global i32 0, align 4
@ett_rpt_gap = internal global i32 0, align 4
@ltp_analyze_sequence = internal global i32 1, align 4
@.str.191 = private unnamed_addr constant [35 x i8] c"Reception gap: %lu-%lu (%lu bytes)\00", align 1

; Function Attrs: nounwind uwtable
define internal void @proto_item_set_generated(ptr noundef %0) #0 {
  %2 = alloca ptr, align 8
  store ptr %0, ptr %2, align 8
  %3 = load ptr, ptr %2, align 8
  %4 = icmp ne ptr %3, null
  br i1 %4, label %5, label %24

5:                                                ; preds = %1
  br label %6

6:                                                ; preds = %5
  %7 = load ptr, ptr %2, align 8
  %8 = getelementptr inbounds %struct._proto_node, ptr %7, i32 0, i32 4
  %9 = load ptr, ptr %8, align 8
  %10 = icmp ne ptr %9, null
  br i1 %10, label %11, label %22

11:                                               ; preds = %6
  %12 = load ptr, ptr %2, align 8
  %13 = getelementptr inbounds %struct._proto_node, ptr %12, i32 0, i32 4
  %14 = load ptr, ptr %13, align 8
  %15 = getelementptr inbounds %struct.field_info, ptr %14, i32 0, i32 6
  %16 = load i32, ptr %15, align 4
  %17 = or i32 %16, 2
  %18 = load ptr, ptr %2, align 8
  %19 = getelementptr inbounds %struct._proto_node, ptr %18, i32 0, i32 4
  %20 = load ptr, ptr %19, align 8
  %21 = getelementptr inbounds %struct.field_info, ptr %20, i32 0, i32 6
  store i32 %17, ptr %21, align 4
  br label %22

22:                                               ; preds = %11, %6
  br label %23

23:                                               ; preds = %22
  br label %24

24:                                               ; preds = %23, %1
  ret void
}

; Function Attrs: nounwind uwtable
define internal void @ltp_check_reception_gap(ptr noundef %0, ptr noundef %1, ptr noundef %2, i64 noundef %3, i64 noundef %4, ptr noundef %5, ptr noundef %6) #0 {
  %8 = alloca ptr, align 8
  %9 = alloca ptr, align 8
  %10 = alloca ptr, align 8
  %11 = alloca i64, align 8
  %12 = alloca i64, align 8
  %13 = alloca ptr, align 8
  %14 = alloca ptr, align 8
  %15 = alloca i64, align 8
  %16 = alloca ptr, align 8
  %17 = alloca ptr, align 8
  %18 = alloca i64, align 8
  %19 = alloca i64, align 8
  %20 = alloca ptr, align 8
  %21 = alloca ptr, align 8
  %22 = alloca ptr, align 8
  store ptr %0, ptr %8, align 8
  store ptr %1, ptr %9, align 8
  store ptr %2, ptr %10, align 8
  store i64 %3, ptr %11, align 8
  store i64 %4, ptr %12, align 8
  store ptr %5, ptr %13, align 8
  store ptr %6, ptr %14, align 8
  %23 = load i64, ptr %12, align 8
  %24 = load i64, ptr %11, align 8
  %25 = add i64 %24, 1
  %26 = sub i64 %23, %25
  store i64 %26, ptr %15, align 8
  %27 = load i64, ptr %15, align 8
  %28 = icmp ule i64 %27, 0
  br i1 %28, label %29, label %30

29:                                               ; preds = %7
  br label %95

30:                                               ; preds = %7
  %31 = load ptr, ptr %8, align 8
  %32 = load i32, ptr @hf_ltp_rpt_gap, align 4
  %33 = load i64, ptr %15, align 8
  %34 = load i64, ptr %11, align 8
  %35 = add i64 %34, 1
  %36 = load i64, ptr %12, align 8
  %37 = sub i64 %36, 1
  %38 = load i64, ptr %15, align 8
  %39 = call ptr (ptr, i32, ptr, i32, i32, i64, ptr, ...) @proto_tree_add_uint64_format(ptr noundef %31, i32 noundef %32, ptr noundef null, i32 noundef 0, i32 noundef 0, i64 noundef %33, ptr noundef @.str.191, i64 noundef %35, i64 noundef %37, i64 noundef %38)
  store ptr %39, ptr %16, align 8
  %40 = load ptr, ptr %16, align 8
  call void @proto_item_set_generated(ptr noundef %40)
  %41 = load ptr, ptr %13, align 8
  %42 = load i32, ptr %41, align 4
  %43 = add i32 %42, 1
  store i32 %43, ptr %41, align 4
  %44 = load i64, ptr %15, align 8
  %45 = load ptr, ptr %14, align 8
  %46 = load i64, ptr %45, align 8
  %47 = add i64 %46, %44
  store i64 %47, ptr %45, align 8
  %48 = load i32, ptr @ltp_analyze_sequence, align 4
  %49 = icmp ne i32 %48, 0
  br i1 %49, label %50, label %95

50:                                               ; preds = %30
  %51 = load ptr, ptr %10, align 8
  %52 = icmp ne ptr %51, null
  br i1 %52, label %53, label %95

53:                                               ; preds = %50
  %54 = load ptr, ptr %16, align 8
  %55 = load i32, ptr @ett_rpt_gap, align 4
  %56 = call ptr @proto_item_add_subtree(ptr noundef %54, i32 noundef %55)
  store ptr %56, ptr %17, align 8
  %57 = load i64, ptr %11, align 8
  %58 = add i64 %57, 1
  store i64 %58, ptr %18, align 8
  %59 = load i64, ptr %12, align 8
  %60 = sub i64 %59, 1
  store i64 %60, ptr %19, align 8
  %61 = load ptr, ptr %10, align 8
  %62 = getelementptr inbounds %struct.ltp_session_data_t, ptr %61, i32 0, i32 0
  %63 = load ptr, ptr %62, align 8
  %64 = call ptr @wmem_packet_scope()
  %65 = load i64, ptr %18, align 8
  %66 = load i64, ptr %19, align 8
  %67 = call ptr @wmem_itree_find_intervals(ptr noundef %63, ptr noundef %64, i64 noundef %65, i64 noundef %66)
  store ptr %67, ptr %20, align 8
  %68 = load ptr, ptr %20, align 8
  %69 = call ptr @wmem_list_head(ptr noundef %68)
  store ptr %69, ptr %21, align 8
  br label %70

70:                                               ; preds = %91, %53
  %71 = load ptr, ptr %21, align 8
  %72 = icmp ne ptr %71, null
  br i1 %72, label %73, label %94

73:                                               ; preds = %70
  %74 = load ptr, ptr %21, align 8
  %75 = call ptr @wmem_list_frame_data(ptr noundef %74)
  store ptr %75, ptr %22, align 8
  %76 = load ptr, ptr %22, align 8
  %77 = getelementptr inbounds %struct.ltp_frame_info_t, ptr %76, i32 0, i32 0
  %78 = load i32, ptr %77, align 8
  %79 = load ptr, ptr %9, align 8
  %80 = getelementptr inbounds %struct._packet_info, ptr %79, i32 0, i32 3
  %81 = load i32, ptr %80, align 4
  %82 = icmp ugt i32 %78, %81
  br i1 %82, label %83, label %84

83:                                               ; preds = %73
  br label %91

84:                                               ; preds = %73
  %85 = load ptr, ptr %17, align 8
  %86 = load i32, ptr @hf_ltp_rpt_gap_ref, align 4
  %87 = load ptr, ptr %22, align 8
  %88 = getelementptr inbounds %struct.ltp_frame_info_t, ptr %87, i32 0, i32 0
  %89 = load i32, ptr %88, align 8
  %90 = call ptr @proto_tree_add_uint(ptr noundef %85, i32 noundef %86, ptr noundef null, i32 noundef 0, i32 noundef 0, i32 noundef %89)
  call void @proto_item_set_generated(ptr noundef %90)
  br label %91

91:                                               ; preds = %84, %83
  %92 = load ptr, ptr %21, align 8
  %93 = call ptr @wmem_list_frame_next(ptr noundef %92)
  store ptr %93, ptr %21, align 8
  br label %70, !llvm.loop !16

94:                                               ; preds = %70
  br label %95

95:                                               ; preds = %94, %50, %30, %29
  ret void
}