; Function Attrs: nounwind uwtable
define internal fastcc void @ltp_check_reception_gap(ptr noundef %0, ptr noundef readonly captures(none) %1, ptr noundef readonly %2, i64 noundef %3, i64 noundef %4, ptr noundef nonnull captures(none) %5, ptr noundef nonnull captures(none) %6) unnamed_addr #0 {
  %8 = add i64 %3, 1
  %9 = icmp eq i64 %4, %8
  br i1 %9, label %.loopexit, label %10

10:                                               ; preds = %7
  %11 = sub i64 %4, %8
  %12 = load i32, ptr @hf_ltp_rpt_gap, align 4
  %13 = add i64 %4, -1
  %14 = tail call ptr (ptr, i32, ptr, i32, i32, i64, ptr, ...) @proto_tree_add_uint64_format(ptr noundef %0, i32 noundef %12, ptr noundef null, i32 noundef 0, i32 noundef 0, i64 noundef %11, ptr noundef nonnull @.str.191, i64 noundef %8, i64 noundef %13, i64 noundef %11) #8
  %.not.i = icmp eq ptr %14, null
  br i1 %.not.i, label %proto_item_set_generated.exit, label %15

15:                                               ; preds = %10
  %16 = getelementptr inbounds nuw i8, ptr %14, i64 32
  %17 = load ptr, ptr %16, align 8
  %.not5.i = icmp eq ptr %17, null
  br i1 %.not5.i, label %proto_item_set_generated.exit, label %18

18:                                               ; preds = %15
  %19 = getelementptr inbounds nuw i8, ptr %17, i64 28
  %20 = load i32, ptr %19, align 4
  %21 = or i32 %20, 2
  store i32 %21, ptr %19, align 4
  br label %proto_item_set_generated.exit

proto_item_set_generated.exit:                    ; preds = %10, %15, %18
  %22 = load i32, ptr %5, align 4
  %23 = add i32 %22, 1
  store i32 %23, ptr %5, align 4
  %24 = load i64, ptr %6, align 8
  %25 = add i64 %24, %11
  store i64 %25, ptr %6, align 8
  %26 = load i32, ptr @ltp_analyze_sequence, align 4
  %27 = icmp ne i32 %26, 0
  %28 = icmp ne ptr %2, null
  %or.cond = and i1 %28, %27
  br i1 %or.cond, label %29, label %.loopexit

29:                                               ; preds = %proto_item_set_generated.exit
  %30 = load i32, ptr @ett_rpt_gap, align 4
  %31 = tail call ptr @proto_item_add_subtree(ptr noundef %14, i32 noundef %30) #8
  %32 = load ptr, ptr %2, align 8
  %33 = tail call ptr @wmem_packet_scope() #8
  %34 = tail call ptr @wmem_itree_find_intervals(ptr noundef %32, ptr noundef %33, i64 noundef %8, i64 noundef %13) #8
  %35 = tail call ptr @wmem_list_head(ptr noundef %34) #8
  %.not33 = icmp eq ptr %35, null
  br i1 %.not33, label %.loopexit, label %.lr.ph

.lr.ph:                                           ; preds = %29
  %36 = getelementptr inbounds nuw i8, ptr %1, i64 20
  br label %37

37:                                               ; preds = %.lr.ph, %proto_item_set_generated.exit32
  %.034 = phi ptr [ %35, %.lr.ph ], [ %52, %proto_item_set_generated.exit32 ]
  %38 = tail call ptr @wmem_list_frame_data(ptr noundef nonnull %.034) #8
  %39 = load i32, ptr %38, align 8
  %40 = load i32, ptr %36, align 4
  %41 = icmp ugt i32 %39, %40
  br i1 %41, label %proto_item_set_generated.exit32, label %42

42:                                               ; preds = %37
  %43 = load i32, ptr @hf_ltp_rpt_gap_ref, align 4
  %44 = tail call ptr @proto_tree_add_uint(ptr noundef %31, i32 noundef %43, ptr noundef null, i32 noundef 0, i32 noundef 0, i32 noundef %39) #8
  %.not.i30 = icmp eq ptr %44, null
  br i1 %.not.i30, label %proto_item_set_generated.exit32, label %45

45:                                               ; preds = %42
  %46 = getelementptr inbounds nuw i8, ptr %44, i64 32
  %47 = load ptr, ptr %46, align 8
  %.not5.i31 = icmp eq ptr %47, null
  br i1 %.not5.i31, label %proto_item_set_generated.exit32, label %48

48:                                               ; preds = %45
  %49 = getelementptr inbounds nuw i8, ptr %47, i64 28
  %50 = load i32, ptr %49, align 4
  %51 = or i32 %50, 2
  store i32 %51, ptr %49, align 4
  br label %proto_item_set_generated.exit32

proto_item_set_generated.exit32:                  ; preds = %48, %45, %42, %37
  %52 = tail call ptr @wmem_list_frame_next(ptr noundef nonnull %.034) #8
  %.not = icmp eq ptr %52, null
  br i1 %.not, label %.loopexit, label %37, !llvm.loop !16

.loopexit:                                        ; preds = %proto_item_set_generated.exit32, %29, %7, %proto_item_set_generated.exit
  ret void
}